; Function Attrs: mustprogress nounwind uwtable
define dso_local void @_ZN4node4quic8Endpoint9SendRetryERKNS0_14PathDescriptorE(ptr noundef nonnull align 8 dereferenceable(1520) %this, ptr noundef nonnull align 8 dereferenceable(40) %options) local_unnamed_addr #3 align 2 {
entry:
  %packet = alloca %"class.node::BaseObjectPtrImpl.412", align 8
  %agg.tmp = alloca %"class.node::BaseObjectPtrImpl.412", align 8
  %addrLRU_ = getelementptr inbounds i8, ptr %this, i64 1416
  %remote_address = getelementptr inbounds i8, ptr %options, i64 32
  %0 = load ptr, ptr %remote_address, align 8
  %call = tail call noundef ptr @_ZN4node16SocketAddressLRUINS_4quic8Endpoint23SocketAddressInfoTraitsEE6UpsertERKNS_13SocketAddressE(ptr noundef nonnull align 8 dereferenceable(96) %addrLRU_, ptr noundef nonnull align 8 dereferenceable(136) %0)
  %retry_count = getelementptr inbounds i8, ptr %call, i64 16
  %1 = load i64, ptr %retry_count, align 8
  %inc = add i64 %1, 1
  store i64 %inc, ptr %retry_count, align 8
  %max_retries = getelementptr inbounds i8, ptr %this, i64 336
  %2 = load i64, ptr %max_retries, align 8
  %cmp.not = icmp ugt i64 %inc, %2
  br i1 %cmp.not, label %if.end7, label %if.then

if.then:                                          ; preds = %entry
  %realm_.i = getelementptr inbounds i8, ptr %this, i64 16
  %3 = load ptr, ptr %realm_.i, align 8
  %env_.i.i = getelementptr inbounds i8, ptr %3, i64 176
  %4 = load ptr, ptr %env_.i.i, align 8
  %add.ptr = getelementptr inbounds i8, ptr %this, i64 56
  %token_secret = getelementptr inbounds i8, ptr %this, i64 392
  call void @_ZN4node4quic6Packet17CreateRetryPacketEPNS_11EnvironmentEPNS1_8ListenerERKNS0_14PathDescriptorERKNS0_11TokenSecretE(ptr nonnull sret(%"class.node::BaseObjectPtrImpl.412") align 8 %packet, ptr noundef %4, ptr noundef nonnull %add.ptr, ptr noundef nonnull align 8 dereferenceable(40) %options, ptr noundef nonnull align 8 dereferenceable(24) %token_secret) #21
  %5 = load ptr, ptr %packet, align 8
  %cmp.i.not = icmp eq ptr %5, null
  br i1 %cmp.i.not, label %if.end7, label %if.end

if.end:                                           ; preds = %if.then
  %6 = ptrtoint ptr %5 to i64
  %ptr_.i = getelementptr inbounds i8, ptr %this, i64 88
  %7 = load ptr, ptr %ptr_.i, align 8
  %memptr.offset.i = getelementptr inbounds i8, ptr %7, i64 72
  %8 = load i64, ptr %memptr.offset.i, align 8
  %add.i = add i64 %8, 1
  store i64 %add.i, ptr %memptr.offset.i, align 8
  store i64 %6, ptr %agg.tmp, align 8
  store ptr null, ptr %packet, align 8
  call void @_ZN4node4quic8Endpoint4SendENS_17BaseObjectPtrImplINS0_6PacketELb0EEE(ptr noundef nonnull align 8 dereferenceable(1520) %this, ptr noundef nonnull %agg.tmp)
  call void @_ZN4node10BaseObject17decrease_refcountEv(ptr noundef nonnull align 8 dereferenceable(32) %5) #21
  %.pr = load ptr, ptr %packet, align 8
  %cmp.not.i2 = icmp eq ptr %.pr, null
  br i1 %cmp.not.i2, label %if.end7, label %if.then.i3

if.then.i3:                                       ; preds = %if.end
  call void @_ZN4node10BaseObject17decrease_refcountEv(ptr noundef nonnull align 8 dereferenceable(32) %.pr) #21
  br label %if.end7

if.end7:                                          ; preds = %if.then, %if.then.i3, %if.end, %entry
  ret void
}